; Function Attrs: nounwind uwtable
define dso_local void @zend_reflection_class_factory(ptr noundef %0, ptr noundef %1) local_unnamed_addr #0 {
  %3 = getelementptr inbounds nuw i8, ptr %0, i64 28
  %4 = load i32, ptr %3, align 4, !tbaa !4
  %5 = and i32 %4, 268435456
  %.not = icmp eq i32 %5, 0
  %6 = load ptr, ptr @reflection_enum_ptr, align 8
  %7 = load ptr, ptr @reflection_class_ptr, align 8
  %8 = select i1 %.not, ptr %7, ptr %6
  %9 = tail call i32 @object_init_ex(ptr noundef %1, ptr noundef %8) #13
  %10 = load ptr, ptr %1, align 8, !tbaa !26
  %11 = getelementptr inbounds i8, ptr %10, i64 -24
  store ptr %0, ptr %11, align 8, !tbaa !27
  %12 = getelementptr inbounds i8, ptr %10, i64 -8
  store i32 0, ptr %12, align 8, !tbaa !32
  %13 = getelementptr inbounds i8, ptr %10, i64 -16
  store ptr %0, ptr %13, align 8, !tbaa !33
  %14 = load ptr, ptr %1, align 8, !tbaa !26
  %15 = getelementptr inbounds nuw i8, ptr %14, i64 16
  %16 = load ptr, ptr %15, align 8, !tbaa !34
  %17 = getelementptr inbounds nuw i8, ptr %16, i64 32
  %18 = load i32, ptr %17, align 8, !tbaa !35
  %19 = icmp sgt i32 %18, 0
  tail call void @llvm.assume(i1 %19)
  %20 = getelementptr inbounds nuw i8, ptr %14, i64 40
  %21 = getelementptr inbounds nuw i8, ptr %0, i64 8
  %22 = load ptr, ptr %21, align 8, !tbaa !36
  store ptr %22, ptr %20, align 8, !tbaa !26
  %23 = getelementptr inbounds nuw i8, ptr %22, i64 4
  %24 = load i32, ptr %23, align 4, !tbaa !26
  %25 = and i32 %24, 64
  %.not17 = icmp eq i32 %25, 0
  br i1 %.not17, label %26, label %29

26:                                               ; preds = %2
  %27 = load i32, ptr %22, align 4, !tbaa !37
  %28 = add i32 %27, 1
  store i32 %28, ptr %22, align 4, !tbaa !37
  br label %29

29:                                               ; preds = %2, %26
  %.sink = phi i32 [ 262, %26 ], [ 6, %2 ]
  %30 = getelementptr inbounds nuw i8, ptr %14, i64 48
  store i32 %.sink, ptr %30, align 8, !tbaa !26
  ret void
}